; Function Attrs: mustprogress uwtable
define dso_local noundef nonnull align 8 dereferenceable(8) ptr @_ZlsRSoRK10ResKeyPath(ptr noundef nonnull returned align 8 dereferenceable(8) %out, ptr noundef nonnull readonly align 8 dereferenceable(24) %value) local_unnamed_addr #4 personality ptr @__gxx_personality_v0 {
entry:
  %0 = load ptr, ptr %value, align 8
  %cmp.i = icmp eq ptr %0, %value
  br i1 %cmp.i, label %if.then, label %for.body

if.then:                                          ; preds = %entry
  %call2 = tail call noundef nonnull align 8 dereferenceable(8) ptr @_ZStlsISt11char_traitsIcEERSt13basic_ostreamIcT_ES5_PKc(ptr noundef nonnull align 8 dereferenceable(8) %out, ptr noundef nonnull @.str.5)
  br label %if.end

for.body:                                         ; preds = %entry, %for.body
  %__begin2.sroa.0.08 = phi ptr [ %1, %for.body ], [ %0, %entry ]
  %_M_storage.i.i = getelementptr inbounds i8, ptr %__begin2.sroa.0.08, i64 16
  %call9 = tail call noundef nonnull align 8 dereferenceable(8) ptr @_ZStlsISt11char_traitsIcEERSt13basic_ostreamIcT_ES5_PKc(ptr noundef nonnull align 8 dereferenceable(8) %out, ptr noundef nonnull @.str.5)
  %call10 = tail call noundef nonnull align 8 dereferenceable(8) ptr @_ZStlsIcSt11char_traitsIcESaIcEERSt13basic_ostreamIT_T0_ES7_RKNSt7__cxx1112basic_stringIS4_S5_T1_EE(ptr noundef nonnull align 8 dereferenceable(8) %call9, ptr noundef nonnull align 8 dereferenceable(32) %_M_storage.i.i)
  %1 = load ptr, ptr %__begin2.sroa.0.08, align 8
  %cmp.i5.not = icmp eq ptr %1, %value
  br i1 %cmp.i5.not, label %if.end, label %for.body

if.end:                                           ; preds = %for.body, %if.then
  ret ptr %out
}